; Function Attrs: mustprogress uwtable
define hidden void @_ZN4cvc58internal6theory5arith13multConstantsERKNS0_12NodeTemplateILb1EEES6_(ptr dead_on_unwind noalias writable sret(%"class.cvc5::internal::NodeTemplate") align 8 %0, ptr noundef nonnull align 8 dereferenceable(8) %1, ptr noundef nonnull align 8 dereferenceable(8) %2) local_unnamed_addr #4 personality ptr @__gxx_personality_v0 {
  %4 = alloca %"class.cvc5::internal::TypeNode", align 8
  %5 = alloca %"class.cvc5::internal::TypeNode", align 8
  %6 = alloca %"class.cvc5::internal::Rational", align 8
  %7 = tail call noundef ptr @_ZN4cvc58internal11NodeManager9currentNMEv()
  call void @llvm.lifetime.start.p0(i64 8, ptr nonnull %4) #23
  call void @_ZNK4cvc58internal12NodeTemplateILb1EE7getTypeEb(ptr dead_on_unwind nonnull writable sret(%"class.cvc5::internal::TypeNode") align 8 %4, ptr noundef nonnull align 8 dereferenceable(8) %1, i1 noundef zeroext false)
  %8 = invoke noundef zeroext i1 @_ZNK4cvc58internal8TypeNode9isIntegerEv(ptr noundef nonnull align 8 dereferenceable(8) %4)
          to label %9 unwind label %52

9:                                                ; preds = %3
  br i1 %8, label %10, label %59

10:                                               ; preds = %9
  call void @llvm.lifetime.start.p0(i64 8, ptr nonnull %5) #23
  invoke void @_ZNK4cvc58internal12NodeTemplateILb1EE7getTypeEb(ptr dead_on_unwind nonnull writable sret(%"class.cvc5::internal::TypeNode") align 8 %5, ptr noundef nonnull align 8 dereferenceable(8) %2, i1 noundef zeroext false)
          to label %11 unwind label %54

11:                                               ; preds = %10
  %12 = load ptr, ptr %4, align 8, !tbaa !85
  %13 = load ptr, ptr %5, align 8, !tbaa !85
  %.not.i = icmp eq ptr %12, %13
  br i1 %.not.i, label %_ZN4cvc58internal8TypeNodeaSERKS1_.exit, label %14, !prof !18

14:                                               ; preds = %11
  %15 = load i64, ptr %12, align 8
  %16 = and i64 %15, 1152920405095219200
  %.not.i.i = icmp eq i64 %16, 1152920405095219200
  br i1 %.not.i.i, label %_ZN4cvc58internal4expr9NodeValue3decEv.exit.i, label %17, !prof !18

17:                                               ; preds = %14
  %18 = add i64 %15, 1152920405095219200
  %19 = and i64 %18, 1152920405095219200
  %20 = and i64 %15, -1152920405095219201
  %21 = or disjoint i64 %19, %20
  store i64 %21, ptr %12, align 8
  %22 = icmp eq i64 %19, 0
  br i1 %22, label %23, label %_ZN4cvc58internal4expr9NodeValue3decEv.exit.i, !prof !18

23:                                               ; preds = %17
  invoke void @_ZN4cvc58internal4expr9NodeValue15markForDeletionEv(ptr noundef nonnull align 8 dereferenceable(24) %12)
          to label %_ZN4cvc58internal4expr9NodeValue3decEv.exit.i unwind label %56

_ZN4cvc58internal4expr9NodeValue3decEv.exit.i:    ; preds = %23, %17, %14
  %24 = load ptr, ptr %5, align 8, !tbaa !85
  store ptr %24, ptr %4, align 8, !tbaa !85
  %25 = load i64, ptr %24, align 8
  %26 = lshr i64 %25, 40
  %27 = trunc nuw nsw i64 %26 to i32
  %28 = and i32 %27, 1048575
  %29 = icmp samesign ult i32 %28, 1048574
  br i1 %29, label %30, label %35, !prof !17

30:                                               ; preds = %_ZN4cvc58internal4expr9NodeValue3decEv.exit.i
  %31 = add i64 %25, 1099511627776
  %32 = and i64 %31, 1152920405095219200
  %33 = and i64 %25, -1152920405095219201
  %34 = or disjoint i64 %32, %33
  store i64 %34, ptr %24, align 8
  br label %_ZN4cvc58internal8TypeNodeaSERKS1_.exit

35:                                               ; preds = %_ZN4cvc58internal4expr9NodeValue3decEv.exit.i
  %36 = icmp eq i32 %28, 1048574
  br i1 %36, label %37, label %_ZN4cvc58internal8TypeNodeaSERKS1_.exit, !prof !18

37:                                               ; preds = %35
  %38 = or i64 %25, 1152920405095219200
  store i64 %38, ptr %24, align 8
  invoke void @_ZN4cvc58internal4expr9NodeValue20markRefCountMaxedOutEv(ptr noundef nonnull align 8 dereferenceable(24) %24)
          to label %_ZN4cvc58internal8TypeNodeaSERKS1_.exit unwind label %56

_ZN4cvc58internal8TypeNodeaSERKS1_.exit:          ; preds = %35, %30, %11, %37
  %39 = load ptr, ptr %5, align 8, !tbaa !85
  %40 = load i64, ptr %39, align 8
  %41 = and i64 %40, 1152920405095219200
  %.not.i.i14 = icmp eq i64 %41, 1152920405095219200
  br i1 %.not.i.i14, label %_ZN4cvc58internal8TypeNodeD2Ev.exit, label %42, !prof !18

42:                                               ; preds = %_ZN4cvc58internal8TypeNodeaSERKS1_.exit
  %43 = add i64 %40, 1152920405095219200
  %44 = and i64 %43, 1152920405095219200
  %45 = and i64 %40, -1152920405095219201
  %46 = or disjoint i64 %44, %45
  store i64 %46, ptr %39, align 8
  %47 = icmp eq i64 %44, 0
  br i1 %47, label %48, label %_ZN4cvc58internal8TypeNodeD2Ev.exit, !prof !18

48:                                               ; preds = %42
  invoke void @_ZN4cvc58internal4expr9NodeValue15markForDeletionEv(ptr noundef nonnull align 8 dereferenceable(24) %39)
          to label %_ZN4cvc58internal8TypeNodeD2Ev.exit unwind label %49

49:                                               ; preds = %48
  %50 = landingpad { ptr, i32 }
          catch ptr null
  %51 = extractvalue { ptr, i32 } %50, 0
  call void @__clang_call_terminate(ptr %51) #24
  unreachable

_ZN4cvc58internal8TypeNodeD2Ev.exit:              ; preds = %_ZN4cvc58internal8TypeNodeaSERKS1_.exit, %42, %48
  call void @llvm.lifetime.end.p0(i64 8, ptr nonnull %5) #23
  br label %59

52:                                               ; preds = %3
  %53 = landingpad { ptr, i32 }
          cleanup
  br label %89

54:                                               ; preds = %10
  %55 = landingpad { ptr, i32 }
          cleanup
  br label %58

56:                                               ; preds = %37, %23
  %57 = landingpad { ptr, i32 }
          cleanup
  call void @_ZN4cvc58internal8TypeNodeD2Ev(ptr noundef nonnull align 8 dereferenceable(8) %5) #23
  br label %58

58:                                               ; preds = %56, %54
  %.pn = phi { ptr, i32 } [ %57, %56 ], [ %55, %54 ]
  call void @llvm.lifetime.end.p0(i64 8, ptr nonnull %5) #23
  br label %89

59:                                               ; preds = %_ZN4cvc58internal8TypeNodeD2Ev.exit, %9
  call void @llvm.lifetime.start.p0(i64 32, ptr nonnull %6) #23
  %60 = load ptr, ptr %1, align 8, !tbaa !3
  %61 = invoke noundef nonnull align 8 dereferenceable(32) ptr @_ZNK4cvc58internal4expr9NodeValue8getConstINS0_8RationalEEERKT_v(ptr noundef nonnull align 8 dereferenceable(24) %60)
          to label %_ZNK4cvc58internal12NodeTemplateILb1EE8getConstINS0_8RationalEEERKT_v.exit unwind label %82

_ZNK4cvc58internal12NodeTemplateILb1EE8getConstINS0_8RationalEEERKT_v.exit: ; preds = %59
  %62 = load ptr, ptr %2, align 8, !tbaa !3
  %63 = invoke noundef nonnull align 8 dereferenceable(32) ptr @_ZNK4cvc58internal4expr9NodeValue8getConstINS0_8RationalEEERKT_v(ptr noundef nonnull align 8 dereferenceable(24) %62)
          to label %_ZNK4cvc58internal12NodeTemplateILb1EE8getConstINS0_8RationalEEERKT_v.exit18 unwind label %82

_ZNK4cvc58internal12NodeTemplateILb1EE8getConstINS0_8RationalEEERKT_v.exit18: ; preds = %_ZNK4cvc58internal12NodeTemplateILb1EE8getConstINS0_8RationalEEERKT_v.exit
  invoke void @_ZNK4cvc58internal8RationalmlERKS1_(ptr dead_on_unwind nonnull writable sret(%"class.cvc5::internal::Rational") align 8 %6, ptr noundef nonnull align 8 dereferenceable(32) %61, ptr noundef nonnull align 8 dereferenceable(32) %63)
          to label %64 unwind label %82

64:                                               ; preds = %_ZNK4cvc58internal12NodeTemplateILb1EE8getConstINS0_8RationalEEERKT_v.exit18
  invoke void @_ZN4cvc58internal11NodeManager16mkConstRealOrIntERKNS0_8TypeNodeERKNS0_8RationalE(ptr dead_on_unwind writable sret(%"class.cvc5::internal::NodeTemplate") align 8 %0, ptr noundef nonnull align 8 dereferenceable(3560) %7, ptr noundef nonnull align 8 dereferenceable(8) %4, ptr noundef nonnull align 8 dereferenceable(32) %6)
          to label %65 unwind label %84

65:                                               ; preds = %64
  invoke void @__gmpq_clear(ptr noundef nonnull align 8 dereferenceable(32) %6)
          to label %_ZN4cvc58internal8RationalD2Ev.exit unwind label %66

66:                                               ; preds = %65
  %67 = landingpad { ptr, i32 }
          catch ptr null
  %68 = extractvalue { ptr, i32 } %67, 0
  call void @__clang_call_terminate(ptr %68) #24
  unreachable

_ZN4cvc58internal8RationalD2Ev.exit:              ; preds = %65
  call void @llvm.lifetime.end.p0(i64 32, ptr nonnull %6) #23
  %69 = load ptr, ptr %4, align 8, !tbaa !85
  %70 = load i64, ptr %69, align 8
  %71 = and i64 %70, 1152920405095219200
  %.not.i.i19 = icmp eq i64 %71, 1152920405095219200
  br i1 %.not.i.i19, label %_ZN4cvc58internal8TypeNodeD2Ev.exit21, label %72, !prof !18

72:                                               ; preds = %_ZN4cvc58internal8RationalD2Ev.exit
  %73 = add i64 %70, 1152920405095219200
  %74 = and i64 %73, 1152920405095219200
  %75 = and i64 %70, -1152920405095219201
  %76 = or disjoint i64 %74, %75
  store i64 %76, ptr %69, align 8
  %77 = icmp eq i64 %74, 0
  br i1 %77, label %78, label %_ZN4cvc58internal8TypeNodeD2Ev.exit21, !prof !18

78:                                               ; preds = %72
  invoke void @_ZN4cvc58internal4expr9NodeValue15markForDeletionEv(ptr noundef nonnull align 8 dereferenceable(24) %69)
          to label %_ZN4cvc58internal8TypeNodeD2Ev.exit21 unwind label %79

79:                                               ; preds = %78
  %80 = landingpad { ptr, i32 }
          catch ptr null
  %81 = extractvalue { ptr, i32 } %80, 0
  call void @__clang_call_terminate(ptr %81) #24
  unreachable

_ZN4cvc58internal8TypeNodeD2Ev.exit21:            ; preds = %_ZN4cvc58internal8RationalD2Ev.exit, %72, %78
  call void @llvm.lifetime.end.p0(i64 8, ptr nonnull %4) #23
  ret void

82:                                               ; preds = %_ZNK4cvc58internal12NodeTemplateILb1EE8getConstINS0_8RationalEEERKT_v.exit, %59, %_ZNK4cvc58internal12NodeTemplateILb1EE8getConstINS0_8RationalEEERKT_v.exit18
  %83 = landingpad { ptr, i32 }
          cleanup
  br label %_ZN4cvc58internal8RationalD2Ev.exit22

84:                                               ; preds = %64
  %85 = landingpad { ptr, i32 }
          cleanup
  invoke void @__gmpq_clear(ptr noundef nonnull align 8 dereferenceable(32) %6)
          to label %_ZN4cvc58internal8RationalD2Ev.exit22 unwind label %86

86:                                               ; preds = %84
  %87 = landingpad { ptr, i32 }
          catch ptr null
  %88 = extractvalue { ptr, i32 } %87, 0
  call void @__clang_call_terminate(ptr %88) #24
  unreachable

_ZN4cvc58internal8RationalD2Ev.exit22:            ; preds = %84, %82
  %.pn10 = phi { ptr, i32 } [ %83, %82 ], [ %85, %84 ]
  call void @llvm.lifetime.end.p0(i64 32, ptr nonnull %6) #23
  br label %89

89:                                               ; preds = %_ZN4cvc58internal8RationalD2Ev.exit22, %58, %52
  %.pn10.pn = phi { ptr, i32 } [ %.pn10, %_ZN4cvc58internal8RationalD2Ev.exit22 ], [ %.pn, %58 ], [ %53, %52 ]
  call void @_ZN4cvc58internal8TypeNodeD2Ev(ptr noundef nonnull align 8 dereferenceable(8) %4) #23
  call void @llvm.lifetime.end.p0(i64 8, ptr nonnull %4) #23
  resume { ptr, i32 } %.pn10.pn
}